target datalayout = "e-m:e-p270:32:32-p271:32:32-p272:64:64-i64:64-i128:128-f80:128-n8:16:32:64-S128"
target triple = "x86_64-pc-linux-gnu"

%"class.cv::bioinspired::BasicRetinaFilter" = type { %"class.cv::bioinspired::TemplateBuffer", %"class.std::valarray", i32, i32, %"class.std::valarray", %"class.std::valarray", %"class.std::valarray", float, float, float, float, float, float, float, float }
%"class.cv::bioinspired::TemplateBuffer" = type { ptr, %"class.std::valarray", i64, i64, i64, i64, i64 }
%"class.std::valarray" = type { i64, ptr }

; Function Attrs: inlinehint mustprogress nounwind uwtable
define linkonce_odr hidden noundef i32 @_ZN2cv11bioinspired14TemplateBufferIfE12getNBcolumnsEv(ptr noundef nonnull align 8 dereferenceable(64) %0) #6 comdat align 2 {
  %2 = alloca ptr, align 8
  store ptr %0, ptr %2, align 8, !tbaa !23
  %3 = load ptr, ptr %2, align 8
  %4 = getelementptr inbounds nuw %"class.cv::bioinspired::TemplateBuffer", ptr %3, i32 0, i32 3
  %5 = load i64, ptr %4, align 8, !tbaa !30
  %6 = trunc i64 %5 to i32
  ret i32 %6
}

; Function Attrs: mustprogress uwtable
define hidden void @_ZN2cv11bioinspired17BasicRetinaFilter31_squaringHorizontalCausalFilterEPKfPfjj(ptr noundef nonnull align 8 dereferenceable(168) %0, ptr noundef %1, ptr noundef %2, i32 noundef %3, i32 noundef %4) #4 align 2 {
  %6 = alloca ptr, align 8
  %7 = alloca ptr, align 8
  %8 = alloca ptr, align 8
  %9 = alloca i32, align 4
  %10 = alloca i32, align 4
  %11 = alloca ptr, align 8
  %12 = alloca ptr, align 8
  %13 = alloca i32, align 4
  %14 = alloca i32, align 4
  %15 = alloca float, align 4
  %16 = alloca i32, align 4
  store ptr %0, ptr %6, align 8, !tbaa !3
  store ptr %1, ptr %7, align 8, !tbaa !49
  store ptr %2, ptr %8, align 8, !tbaa !49
  store i32 %3, ptr %9, align 4, !tbaa !8
  store i32 %4, ptr %10, align 4, !tbaa !8
  %17 = load ptr, ptr %6, align 8
  call void @llvm.lifetime.start.p0(i64 8, ptr %11) #3
  %18 = load ptr, ptr %8, align 8, !tbaa !49
  %19 = load i32, ptr %9, align 4, !tbaa !8
  %20 = getelementptr inbounds nuw %"class.cv::bioinspired::BasicRetinaFilter", ptr %17, i32 0, i32 0
  %21 = call noundef i32 @_ZN2cv11bioinspired14TemplateBufferIfE12getNBcolumnsEv(ptr noundef nonnull align 8 dereferenceable(64) %20)
  %22 = mul i32 %19, %21
  %23 = zext i32 %22 to i64
  %24 = getelementptr inbounds nuw float, ptr %18, i64 %23
  store ptr %24, ptr %11, align 8, !tbaa !49
  call void @llvm.lifetime.start.p0(i64 8, ptr %12) #3
  %25 = load ptr, ptr %7, align 8, !tbaa !49
  %26 = load i32, ptr %9, align 4, !tbaa !8
  %27 = getelementptr inbounds nuw %"class.cv::bioinspired::BasicRetinaFilter", ptr %17, i32 0, i32 0
  %28 = call noundef i32 @_ZN2cv11bioinspired14TemplateBufferIfE12getNBcolumnsEv(ptr noundef nonnull align 8 dereferenceable(64) %27)
  %29 = mul i32 %26, %28
  %30 = zext i32 %29 to i64
  %31 = getelementptr inbounds nuw float, ptr %25, i64 %30
  store ptr %31, ptr %12, align 8, !tbaa !49
  call void @llvm.lifetime.start.p0(i64 4, ptr %13) #3
  %32 = load i32, ptr %9, align 4, !tbaa !8
  store i32 %32, ptr %13, align 4, !tbaa !8
  br label %33

33:                                               ; preds = %69, %5
  %34 = load i32, ptr %13, align 4, !tbaa !8
  %35 = load i32, ptr %10, align 4, !tbaa !8
  %36 = icmp ult i32 %34, %35
  br i1 %36, label %38, label %37

37:                                               ; preds = %33
  store i32 2, ptr %14, align 4
  call void @llvm.lifetime.end.p0(i64 4, ptr %13) #3
  br label %72

38:                                               ; preds = %33
  call void @llvm.lifetime.start.p0(i64 4, ptr %15) #3
  store float 0.000000e+00, ptr %15, align 4, !tbaa !26
  call void @llvm.lifetime.start.p0(i64 4, ptr %16) #3
  store i32 0, ptr %16, align 4, !tbaa !8
  br label %39

39:                                               ; preds = %65, %38
  %40 = load i32, ptr %16, align 4, !tbaa !8
  %41 = getelementptr inbounds nuw %"class.cv::bioinspired::BasicRetinaFilter", ptr %17, i32 0, i32 0
  %42 = call noundef i32 @_ZN2cv11bioinspired14TemplateBufferIfE12getNBcolumnsEv(ptr noundef nonnull align 8 dereferenceable(64) %41)
  %43 = icmp ult i32 %40, %42
  br i1 %43, label %45, label %44

44:                                               ; preds = %39
  store i32 5, ptr %14, align 4
  call void @llvm.lifetime.end.p0(i64 4, ptr %16) #3
  br label %68

45:                                               ; preds = %39
  %46 = load ptr, ptr %12, align 8, !tbaa !49
  %47 = load float, ptr %46, align 4, !tbaa !26
  %48 = load ptr, ptr %12, align 8, !tbaa !49
  %49 = load float, ptr %48, align 4, !tbaa !26
  %50 = getelementptr inbounds nuw %"class.cv::bioinspired::BasicRetinaFilter", ptr %17, i32 0, i32 13
  %51 = load float, ptr %50, align 8, !tbaa !54
  %52 = load ptr, ptr %11, align 8, !tbaa !49
  %53 = load float, ptr %52, align 4, !tbaa !26
  %54 = fmul float %51, %53
  %55 = call float @llvm.fmuladd.f32(float %47, float %49, float %54)
  %56 = getelementptr inbounds nuw %"class.cv::bioinspired::BasicRetinaFilter", ptr %17, i32 0, i32 12
  %57 = load float, ptr %56, align 4, !tbaa !46
  %58 = load float, ptr %15, align 4, !tbaa !26
  %59 = call float @llvm.fmuladd.f32(float %57, float %58, float %55)
  store float %59, ptr %15, align 4, !tbaa !26
  %60 = load float, ptr %15, align 4, !tbaa !26
  %61 = load ptr, ptr %11, align 8, !tbaa !49
  %62 = getelementptr inbounds nuw float, ptr %61, i32 1
  store ptr %62, ptr %11, align 8, !tbaa !49
  store float %60, ptr %61, align 4, !tbaa !26
  %63 = load ptr, ptr %12, align 8, !tbaa !49
  %64 = getelementptr inbounds nuw float, ptr %63, i32 1
  store ptr %64, ptr %12, align 8, !tbaa !49
  br label %65

65:                                               ; preds = %45
  %66 = load i32, ptr %16, align 4, !tbaa !8
  %67 = add i32 %66, 1
  store i32 %67, ptr %16, align 4, !tbaa !8
  br label %39, !llvm.loop !74

68:                                               ; preds = %44
  call void @llvm.lifetime.end.p0(i64 4, ptr %15) #3
  br label %69

69:                                               ; preds = %68
  %70 = load i32, ptr %13, align 4, !tbaa !8
  %71 = add i32 %70, 1
  store i32 %71, ptr %13, align 4, !tbaa !8
  br label %33, !llvm.loop !75

72:                                               ; preds = %37
  call void @llvm.lifetime.end.p0(i64 8, ptr %12) #3
  call void @llvm.lifetime.end.p0(i64 8, ptr %11) #3
  ret void
}