; Function Attrs: mustprogress nofree norecurse nosync nounwind memory(argmem: readwrite) uwtable
define hidden void @_ZN2cv11bioinspired17BasicRetinaFilter31_squaringHorizontalCausalFilterEPKfPfjj(ptr noundef nonnull readonly align 8 captures(none) dereferenceable(168) %0, ptr noundef readonly captures(none) %1, ptr noundef captures(none) %2, i32 noundef %3, i32 noundef %4) local_unnamed_addr #9 align 2 {
  %6 = getelementptr inbounds nuw i8, ptr %0, i64 32
  %7 = load i64, ptr %6, align 8, !tbaa !17
  %8 = trunc i64 %7 to i32
  %9 = icmp ult i32 %3, %4
  br i1 %9, label %.preheader.lr.ph, label %._crit_edge30

.preheader.lr.ph:                                 ; preds = %5
  %.not = icmp eq i32 %8, 0
  %10 = getelementptr inbounds nuw i8, ptr %0, i64 160
  %11 = getelementptr inbounds nuw i8, ptr %0, i64 156
  br i1 %.not, label %._crit_edge30, label %.preheader.us.preheader

.preheader.us.preheader:                          ; preds = %.preheader.lr.ph
  %12 = mul i32 %3, %8
  %13 = zext i32 %12 to i64
  %14 = getelementptr inbounds nuw float, ptr %2, i64 %13
  %15 = getelementptr inbounds nuw float, ptr %1, i64 %13
  br label %.preheader.us

.preheader.us:                                    ; preds = %.preheader.us.preheader, %._crit_edge.us
  %.01829.us = phi i32 [ %27, %._crit_edge.us ], [ %3, %.preheader.us.preheader ]
  %.01928.us = phi ptr [ %25, %._crit_edge.us ], [ %15, %.preheader.us.preheader ]
  %.02027.us = phi ptr [ %24, %._crit_edge.us ], [ %14, %.preheader.us.preheader ]
  br label %16

16:                                               ; preds = %.preheader.us, %16
  %.025.us = phi i32 [ 0, %.preheader.us ], [ %26, %16 ]
  %.01724.us = phi float [ 0.000000e+00, %.preheader.us ], [ %23, %16 ]
  %.123.us = phi ptr [ %.01928.us, %.preheader.us ], [ %25, %16 ]
  %.12122.us = phi ptr [ %.02027.us, %.preheader.us ], [ %24, %16 ]
  %17 = load float, ptr %.123.us, align 4, !tbaa !11
  %18 = load float, ptr %10, align 8, !tbaa !84
  %19 = load float, ptr %.12122.us, align 4, !tbaa !11
  %20 = fmul float %18, %19
  %21 = tail call float @llvm.fmuladd.f32(float %17, float %17, float %20)
  %22 = load float, ptr %11, align 4, !tbaa !65
  %23 = tail call float @llvm.fmuladd.f32(float %22, float %.01724.us, float %21)
  %24 = getelementptr inbounds nuw i8, ptr %.12122.us, i64 4
  store float %23, ptr %.12122.us, align 4, !tbaa !11
  %25 = getelementptr inbounds nuw i8, ptr %.123.us, i64 4
  %26 = add nuw i32 %.025.us, 1
  %exitcond.not = icmp eq i32 %26, %8
  br i1 %exitcond.not, label %._crit_edge.us, label %16, !llvm.loop !111

._crit_edge.us:                                   ; preds = %16
  %27 = add nuw i32 %.01829.us, 1
  %exitcond33.not = icmp eq i32 %27, %4
  br i1 %exitcond33.not, label %._crit_edge30, label %.preheader.us, !llvm.loop !112

._crit_edge30:                                    ; preds = %._crit_edge.us, %.preheader.lr.ph, %5
  ret void
}